target datalayout = "e-m:e-p270:32:32-p271:32:32-p272:64:64-i64:64-i128:128-f80:128-n8:16:32:64-S128"
target triple = "x86_64-pc-linux-gnu"

%struct.redisServer = type { i32, i64, ptr, ptr, ptr, i32, i32, i32, i32, i32, ptr, ptr, ptr, ptr, ptr, i32, i32, i32, i32, i64, i32, i32, i32, i32, ptr, i32, i32, [41 x i8], i32, i64, i32, i32, i32, ptr, ptr, i32, i32, i64, ptr, ptr, ptr, ptr, [2 x i32], i32, i32, i32, i32, i32, i32, [16 x ptr], i32, ptr, ptr, i32, [8 x %struct.connListener], i32, %struct.connListener, ptr, ptr, ptr, ptr, ptr, ptr, ptr, ptr, ptr, ptr, i32, ptr, i32, ptr, [3 x %struct.pause_event], [256 x i8], ptr, i64, i32, i32, [128 x i32], i32, i32, i64, i32, i32, i32, i32, i32, i64, i64, i64, i64, i64, i64, i64, i64, i64, i64, double, i64, i64, i64, i64, i64, i64, i64, i64, i64, i64, i64, i64, i64, i64, i64, i64, i64, i64, i64, i64, i64, double, i64, i64, i64, i64, i64, ptr, i64, i64, i64, %struct.malloc_stats, i64, i64, i64, i64, i64, i64, i64, i64, i64, i64, i64, i64, double, [4 x i64], i64, i64, i64, i64, [128 x i64], [128 x i64], i64, i64, [7 x %struct.anon], i64, i64, i64, i64, i64, i64, [4 x %struct.durationStats], i32, i32, i32, i32, i32, i32, i32, i32, i32, i32, i32, i32, i64, i32, i32, i32, i32, i64, i64, i32, i32, i32, i32, i32, ptr, [3 x %struct.clientBufferLimitsConfig], i32, i32, i32, ptr, i32, i32, i32, i32, i32, i32, ptr, ptr, i32, i32, i64, i64, i64, i64, i64, i32, i32, ptr, i32, i32, i64, i64, i64, i64, i64, i32, i32, i64, i32, i32, i32, i32, i32, i32, i32, i32, ptr, i32, i64, i64, i64, i64, i32, ptr, i32, ptr, i32, i32, i32, i64, i64, i64, i64, i32, i32, i32, i32, i32, i32, ptr, i32, i32, ptr, i32, i32, i32, [2 x i32], i32, %struct.redisOpArray, i32, ptr, i32, ptr, i32, i32, i32, i32, i32, i32, i32, [41 x i8], [41 x i8], i64, i64, i64, i64, i32, i32, ptr, i64, i64, %struct.replDataBuf, i64, i64, i32, i32, i32, i32, i32, i32, i32, i32, i32, i64, ptr, i64, ptr, ptr, ptr, i32, i32, ptr, ptr, i32, i32, i32, i64, i64, i64, i64, ptr, ptr, i32, ptr, i64, i32, i32, i32, i64, i32, i32, i32, i32, ptr, i32, i32, [41 x i8], i64, i32, ptr, i32, i32, i64, i64, i32, i32, i32, i32, i32, i64, [3 x i32], i32, i32, i32, [10 x i32], ptr, ptr, i32, i64, ptr, ptr, i32, i32, i32, i32, i64, i64, i64, i64, i64, i64, i64, i64, i64, i64, i32, i32, i64, i64, i32, i64, i64, i64, i64, i64, ptr, ptr, i32, ptr, i32, i32, i32, i32, i64, i64, ptr, ptr, i32, i32, i32, i32, i32, ptr, ptr, ptr, i32, i32, i32, i32, i32, i32, i32, i64, i32, i32, i64, i32, i32, i32, i32, i32, i32, i32, i64, ptr, ptr, i64, ptr, i32, %struct.aclInfo, i32, i64, i32, i32, i32, %struct.redisTLSContextConfig, ptr, ptr, ptr, ptr, ptr, i64, i32, ptr, i32, i32, i32, i64, i32, ptr }
%struct.connListener = type { [16 x i32], i32, ptr, i32, i32, ptr, ptr }
%struct.pause_event = type { i32, i64 }
%struct.malloc_stats = type { i64, i64, i64, i64, i64, i64, i64, i64, i64, i64, i64 }
%struct.anon = type { i64, i64, [16 x i64], i32 }
%struct.durationStats = type { i64, i64, i64 }
%struct.clientBufferLimitsConfig = type { i64, i64, i64 }
%struct.redisOpArray = type { ptr, i32, i32 }
%struct.replDataBuf = type { ptr, i64, i64, i64, i64 }
%struct.aclInfo = type { i64, i64, i64, i64 }
%struct.redisTLSContextConfig = type { ptr, ptr, ptr, ptr, ptr, ptr, ptr, ptr, ptr, ptr, ptr, ptr, i32, i32, i32, i32 }
%struct.client = type { i64, i64, ptr, i8, i8, i8, i8, i32, ptr, ptr, ptr, ptr, ptr, i64, i64, i32, ptr, i32, i32, ptr, i64, ptr, ptr, ptr, ptr, ptr, i32, i32, i64, ptr, i64, ptr, i64, i64, i64, i32, ptr, i64, i64, i32, i32, i32, i32, i64, i64, ptr, i64, i64, i64, i64, i64, i64, i64, i64, [41 x i8], i32, ptr, i32, i32, i64, %struct.multiState, %struct.blockingState, i64, ptr, ptr, ptr, ptr, ptr, ptr, ptr, ptr, ptr, ptr, ptr, ptr, ptr, ptr, i64, ptr, i64, i32, ptr, ptr, ptr, i64, %struct.listNode, i64, i64, i32, i64, ptr }
%struct.multiState = type { ptr, i32, i32, i32, i64, i32 }
%struct.blockingState = type { i32, i64, i32, ptr, i32, i32, i64, ptr, ptr, i64 }
%struct.listNode = type { ptr, ptr, ptr }
%struct.redisObject = type { i32, i32, ptr }
%struct.sdshdr8 = type { i8, i8, i8, [0 x i8] }
%struct.sdshdr16 = type <{ i16, i16, i8, [0 x i8] }>
%struct.sdshdr32 = type <{ i32, i32, i8, [0 x i8] }>
%struct.sdshdr64 = type <{ i64, i64, i8, [0 x i8] }>

@TrackingTable = dso_local global ptr null, align 8
@PrefixTable = dso_local global ptr null, align 8
@server = external global %struct.redisServer, align 8
@.str.5 = private unnamed_addr constant [21 x i8] c"__redis__:invalidate\00", align 1
@TrackingChannelName = dso_local global ptr null, align 8
@.str.6 = private unnamed_addr constant [1 x i8] zeroinitializer, align 1

; Function Attrs: inlinehint nounwind uwtable
define internal i64 @sdslen(ptr noundef %0) #5 {
  %2 = alloca i64, align 8
  %3 = alloca ptr, align 8
  %4 = alloca i8, align 1
  %5 = alloca i32, align 4
  store ptr %0, ptr %3, align 8, !tbaa !71
  call void @llvm.lifetime.start.p0(i64 1, ptr %4) #10
  %6 = load ptr, ptr %3, align 8, !tbaa !71
  %7 = getelementptr inbounds i8, ptr %6, i64 -1
  %8 = load i8, ptr %7, align 1, !tbaa !75
  store i8 %8, ptr %4, align 1, !tbaa !75
  %9 = load i8, ptr %4, align 1, !tbaa !75
  %10 = zext i8 %9 to i32
  %11 = and i32 %10, 7
  switch i32 %11, label %40 [
    i32 0, label %12
    i32 1, label %17
    i32 2, label %23
    i32 3, label %29
    i32 4, label %35
  ]

12:                                               ; preds = %1
  %13 = load i8, ptr %4, align 1, !tbaa !75
  %14 = zext i8 %13 to i32
  %15 = ashr i32 %14, 3
  %16 = sext i32 %15 to i64
  store i64 %16, ptr %2, align 8
  store i32 1, ptr %5, align 4
  br label %41

17:                                               ; preds = %1
  %18 = load ptr, ptr %3, align 8, !tbaa !71
  %19 = getelementptr inbounds i8, ptr %18, i64 -3
  %20 = getelementptr inbounds nuw %struct.sdshdr8, ptr %19, i32 0, i32 0
  %21 = load i8, ptr %20, align 1, !tbaa !75
  %22 = zext i8 %21 to i64
  store i64 %22, ptr %2, align 8
  store i32 1, ptr %5, align 4
  br label %41

23:                                               ; preds = %1
  %24 = load ptr, ptr %3, align 8, !tbaa !71
  %25 = getelementptr inbounds i8, ptr %24, i64 -5
  %26 = getelementptr inbounds nuw %struct.sdshdr16, ptr %25, i32 0, i32 0
  %27 = load i16, ptr %26, align 1, !tbaa !76
  %28 = zext i16 %27 to i64
  store i64 %28, ptr %2, align 8
  store i32 1, ptr %5, align 4
  br label %41

29:                                               ; preds = %1
  %30 = load ptr, ptr %3, align 8, !tbaa !71
  %31 = getelementptr inbounds i8, ptr %30, i64 -9
  %32 = getelementptr inbounds nuw %struct.sdshdr32, ptr %31, i32 0, i32 0
  %33 = load i32, ptr %32, align 1, !tbaa !37
  %34 = zext i32 %33 to i64
  store i64 %34, ptr %2, align 8
  store i32 1, ptr %5, align 4
  br label %41

35:                                               ; preds = %1
  %36 = load ptr, ptr %3, align 8, !tbaa !71
  %37 = getelementptr inbounds i8, ptr %36, i64 -17
  %38 = getelementptr inbounds nuw %struct.sdshdr64, ptr %37, i32 0, i32 0
  %39 = load i64, ptr %38, align 1, !tbaa !67
  store i64 %39, ptr %2, align 8
  store i32 1, ptr %5, align 4
  br label %41

40:                                               ; preds = %1
  store i64 0, ptr %2, align 8
  store i32 1, ptr %5, align 4
  br label %41

41:                                               ; preds = %40, %35, %29, %23, %17, %12
  call void @llvm.lifetime.end.p0(i64 1, ptr %4) #10
  %42 = load i64, ptr %2, align 8
  ret i64 %42
}

; Function Attrs: nounwind uwtable
define dso_local void @enableTracking(ptr noundef %0, i64 noundef %1, i64 noundef %2, ptr noundef %3, i64 noundef %4) #0 {
  %6 = alloca ptr, align 8
  %7 = alloca i64, align 8
  %8 = alloca i64, align 8
  %9 = alloca ptr, align 8
  %10 = alloca i64, align 8
  %11 = alloca i64, align 8
  %12 = alloca ptr, align 8
  store ptr %0, ptr %6, align 8, !tbaa !5
  store i64 %1, ptr %7, align 8, !tbaa !67
  store i64 %2, ptr %8, align 8, !tbaa !67
  store ptr %3, ptr %9, align 8, !tbaa !66
  store i64 %4, ptr %10, align 8, !tbaa !67
  %13 = load ptr, ptr %6, align 8, !tbaa !5
  %14 = getelementptr inbounds nuw %struct.client, ptr %13, i32 0, i32 1
  %15 = load i64, ptr %14, align 8, !tbaa !10
  %16 = and i64 %15, 2147483648
  %17 = icmp ne i64 %16, 0
  br i1 %17, label %21, label %18

18:                                               ; preds = %5
  %19 = load i32, ptr getelementptr inbounds nuw (%struct.redisServer, ptr @server, i32 0, i32 346), align 8, !tbaa !46
  %20 = add i32 %19, 1
  store i32 %20, ptr getelementptr inbounds nuw (%struct.redisServer, ptr @server, i32 0, i32 346), align 8, !tbaa !46
  br label %21

21:                                               ; preds = %18, %5
  %22 = load ptr, ptr %6, align 8, !tbaa !5
  %23 = getelementptr inbounds nuw %struct.client, ptr %22, i32 0, i32 1
  %24 = load i64, ptr %23, align 8, !tbaa !10
  %25 = or i64 %24, 2147483648
  store i64 %25, ptr %23, align 8, !tbaa !10
  %26 = load ptr, ptr %6, align 8, !tbaa !5
  %27 = getelementptr inbounds nuw %struct.client, ptr %26, i32 0, i32 1
  %28 = load i64, ptr %27, align 8, !tbaa !10
  %29 = and i64 %28, -201863462913
  store i64 %29, ptr %27, align 8, !tbaa !10
  %30 = load i64, ptr %7, align 8, !tbaa !67
  %31 = load ptr, ptr %6, align 8, !tbaa !5
  %32 = getelementptr inbounds nuw %struct.client, ptr %31, i32 0, i32 77
  store i64 %30, ptr %32, align 8, !tbaa !78
  %33 = load ptr, ptr @TrackingTable, align 8, !tbaa !31
  %34 = icmp eq ptr %33, null
  br i1 %34, label %35, label %39

35:                                               ; preds = %21
  %36 = call ptr @raxNew()
  store ptr %36, ptr @TrackingTable, align 8, !tbaa !31
  %37 = call ptr @raxNew()
  store ptr %37, ptr @PrefixTable, align 8, !tbaa !31
  %38 = call ptr @createStringObject(ptr noundef @.str.5, i64 noundef 20)
  store ptr %38, ptr @TrackingChannelName, align 8, !tbaa !68
  br label %39

39:                                               ; preds = %35, %21
  %40 = load i64, ptr %8, align 8, !tbaa !67
  %41 = and i64 %40, 8589934592
  %42 = icmp ne i64 %41, 0
  br i1 %42, label %43, label %73

43:                                               ; preds = %39
  %44 = load ptr, ptr %6, align 8, !tbaa !5
  %45 = getelementptr inbounds nuw %struct.client, ptr %44, i32 0, i32 1
  %46 = load i64, ptr %45, align 8, !tbaa !10
  %47 = or i64 %46, 8589934592
  store i64 %47, ptr %45, align 8, !tbaa !10
  %48 = load i64, ptr %10, align 8, !tbaa !67
  %49 = icmp eq i64 %48, 0
  br i1 %49, label %50, label %52

50:                                               ; preds = %43
  %51 = load ptr, ptr %6, align 8, !tbaa !5
  call void @enableBcastTrackingForPrefix(ptr noundef %51, ptr noundef @.str.6, i64 noundef 0)
  br label %52

52:                                               ; preds = %50, %43
  call void @llvm.lifetime.start.p0(i64 8, ptr %11) #10
  store i64 0, ptr %11, align 8, !tbaa !67
  br label %53

53:                                               ; preds = %69, %52
  %54 = load i64, ptr %11, align 8, !tbaa !67
  %55 = load i64, ptr %10, align 8, !tbaa !67
  %56 = icmp ult i64 %54, %55
  br i1 %56, label %58, label %57

57:                                               ; preds = %53
  call void @llvm.lifetime.end.p0(i64 8, ptr %11) #10
  br label %72

58:                                               ; preds = %53
  call void @llvm.lifetime.start.p0(i64 8, ptr %12) #10
  %59 = load ptr, ptr %9, align 8, !tbaa !66
  %60 = load i64, ptr %11, align 8, !tbaa !67
  %61 = getelementptr inbounds nuw ptr, ptr %59, i64 %60
  %62 = load ptr, ptr %61, align 8, !tbaa !68
  %63 = getelementptr inbounds nuw %struct.redisObject, ptr %62, i32 0, i32 2
  %64 = load ptr, ptr %63, align 8, !tbaa !69
  store ptr %64, ptr %12, align 8, !tbaa !71
  %65 = load ptr, ptr %6, align 8, !tbaa !5
  %66 = load ptr, ptr %12, align 8, !tbaa !71
  %67 = load ptr, ptr %12, align 8, !tbaa !71
  %68 = call i64 @sdslen(ptr noundef %67)
  call void @enableBcastTrackingForPrefix(ptr noundef %65, ptr noundef %66, i64 noundef %68)
  call void @llvm.lifetime.end.p0(i64 8, ptr %12) #10
  br label %69

69:                                               ; preds = %58
  %70 = load i64, ptr %11, align 8, !tbaa !67
  %71 = add i64 %70, 1
  store i64 %71, ptr %11, align 8, !tbaa !67
  br label %53, !llvm.loop !79

72:                                               ; preds = %57
  br label %73

73:                                               ; preds = %72, %39
  %74 = load i64, ptr %8, align 8, !tbaa !67
  %75 = and i64 %74, 188978561024
  %76 = load ptr, ptr %6, align 8, !tbaa !5
  %77 = getelementptr inbounds nuw %struct.client, ptr %76, i32 0, i32 1
  %78 = load i64, ptr %77, align 8, !tbaa !10
  %79 = or i64 %78, %75
  store i64 %79, ptr %77, align 8, !tbaa !10
  ret void
}