; Function Attrs: nounwind uwtable
define dso_local void @enableTracking(ptr noundef initializes((672, 680)) %0, i64 noundef %1, i64 noundef %2, ptr noundef readonly captures(none) %3, i64 noundef %4) local_unnamed_addr #0 {
  %6 = getelementptr inbounds nuw i8, ptr %0, i64 8
  %7 = load i64, ptr %6, align 8, !tbaa !10
  %8 = and i64 %7, 2147483648
  %.not = icmp eq i64 %8, 0
  br i1 %.not, label %9, label %12

9:                                                ; preds = %5
  %10 = load i32, ptr getelementptr inbounds nuw (i8, ptr @server, i64 7648), align 8, !tbaa !44
  %11 = add i32 %10, 1
  store i32 %11, ptr getelementptr inbounds nuw (i8, ptr @server, i64 7648), align 8, !tbaa !44
  br label %12

12:                                               ; preds = %9, %5
  %13 = and i64 %7, -204010946561
  %14 = or disjoint i64 %13, 2147483648
  store i64 %14, ptr %6, align 8, !tbaa !10
  %15 = getelementptr inbounds nuw i8, ptr %0, i64 672
  store i64 %1, ptr %15, align 8, !tbaa !74
  %16 = load ptr, ptr @TrackingTable, align 8, !tbaa !31
  %17 = icmp eq ptr %16, null
  br i1 %17, label %18, label %22

18:                                               ; preds = %12
  %19 = tail call ptr @raxNew() #9
  store ptr %19, ptr @TrackingTable, align 8, !tbaa !31
  %20 = tail call ptr @raxNew() #9
  store ptr %20, ptr @PrefixTable, align 8, !tbaa !31
  %21 = tail call ptr @createStringObject(ptr noundef nonnull @.str.5, i64 noundef 20) #9
  store ptr %21, ptr @TrackingChannelName, align 8, !tbaa !64
  br label %22

22:                                               ; preds = %18, %12
  %23 = and i64 %2, 8589934592
  %.not18 = icmp eq i64 %23, 0
  br i1 %.not18, label %.loopexit, label %24

24:                                               ; preds = %22
  %25 = load i64, ptr %6, align 8, !tbaa !10
  %26 = or i64 %25, 8589934592
  store i64 %26, ptr %6, align 8, !tbaa !10
  %27 = icmp eq i64 %4, 0
  br i1 %27, label %.thread, label %.lr.ph

.thread:                                          ; preds = %24
  tail call void @enableBcastTrackingForPrefix(ptr noundef nonnull %0, ptr noundef nonnull @.str.6, i64 noundef 0)
  br label %.loopexit

.lr.ph:                                           ; preds = %24, %sdslen.exit
  %.019 = phi i64 [ %54, %sdslen.exit ], [ 0, %24 ]
  %28 = getelementptr inbounds nuw ptr, ptr %3, i64 %.019
  %29 = load ptr, ptr %28, align 8, !tbaa !64
  %30 = getelementptr inbounds nuw i8, ptr %29, i64 8
  %31 = load ptr, ptr %30, align 8, !tbaa !65
  %32 = getelementptr inbounds i8, ptr %31, i64 -1
  %33 = load i8, ptr %32, align 1, !tbaa !67
  %34 = zext i8 %33 to i32
  %35 = and i32 %34, 7
  switch i32 %35, label %sdslen.exit [
    i32 0, label %36
    i32 1, label %39
    i32 2, label %43
    i32 3, label %47
    i32 4, label %51
  ]

36:                                               ; preds = %.lr.ph
  %37 = lshr i32 %34, 3
  %38 = zext nneg i32 %37 to i64
  br label %sdslen.exit

39:                                               ; preds = %.lr.ph
  %40 = getelementptr inbounds i8, ptr %31, i64 -3
  %41 = load i8, ptr %40, align 1, !tbaa !67
  %42 = zext i8 %41 to i64
  br label %sdslen.exit

43:                                               ; preds = %.lr.ph
  %44 = getelementptr inbounds i8, ptr %31, i64 -5
  %45 = load i16, ptr %44, align 1, !tbaa !68
  %46 = zext i16 %45 to i64
  br label %sdslen.exit

47:                                               ; preds = %.lr.ph
  %48 = getelementptr inbounds i8, ptr %31, i64 -9
  %49 = load i32, ptr %48, align 1, !tbaa !70
  %50 = zext i32 %49 to i64
  br label %sdslen.exit

51:                                               ; preds = %.lr.ph
  %52 = getelementptr inbounds i8, ptr %31, i64 -17
  %53 = load i64, ptr %52, align 1, !tbaa !71
  br label %sdslen.exit

sdslen.exit:                                      ; preds = %.lr.ph, %36, %39, %43, %47, %51
  %.0.i = phi i64 [ %53, %51 ], [ %50, %47 ], [ %46, %43 ], [ %42, %39 ], [ %38, %36 ], [ 0, %.lr.ph ]
  tail call void @enableBcastTrackingForPrefix(ptr noundef %0, ptr noundef nonnull %31, i64 noundef %.0.i)
  %54 = add nuw i64 %.019, 1
  %exitcond.not = icmp eq i64 %54, %4
  br i1 %exitcond.not, label %.loopexit, label %.lr.ph, !llvm.loop !75

.loopexit:                                        ; preds = %sdslen.exit, %.thread, %22
  %55 = and i64 %2, 188978561024
  %56 = load i64, ptr %6, align 8, !tbaa !10
  %57 = or i64 %56, %55
  store i64 %57, ptr %6, align 8, !tbaa !10
  ret void
}